; Function Attrs: mustprogress uwtable
define hidden void @_ZNK19OpenColorIO_v2_4dev22LogCameraTransformImpl8validateEv(ptr noundef nonnull align 8 dereferenceable(264) %this) unnamed_addr #0 align 2 personality ptr @__gxx_personality_v0 {
entry:
  %errMsg = alloca %"class.std::__cxx11::basic_string", align 8
  %ref.tmp = alloca %"class.std::allocator", align 1
  invoke void @_ZNK19OpenColorIO_v2_4dev9Transform8validateEv(ptr noundef nonnull align 8 dereferenceable(8) %this)
          to label %invoke.cont unwind label %lpad

invoke.cont:                                      ; preds = %entry
  %m_data.i = getelementptr inbounds i8, ptr %this, i64 8
  %vtable = load ptr, ptr %m_data.i, align 8
  %vfn = getelementptr inbounds i8, ptr %vtable, i64 16
  %0 = load ptr, ptr %vfn, align 8
  invoke void %0(ptr noundef nonnull align 8 dereferenceable(252) %m_data.i)
          to label %invoke.cont2 unwind label %lpad

invoke.cont2:                                     ; preds = %invoke.cont
  %m_redParams.i = getelementptr inbounds i8, ptr %this, i64 176
  %_M_finish.i = getelementptr inbounds i8, ptr %this, i64 184
  %1 = load ptr, ptr %_M_finish.i, align 8
  %2 = load ptr, ptr %m_redParams.i, align 8
  %sub.ptr.lhs.cast.i = ptrtoint ptr %1 to i64
  %sub.ptr.rhs.cast.i = ptrtoint ptr %2 to i64
  %sub.ptr.sub.i = sub i64 %sub.ptr.lhs.cast.i, %sub.ptr.rhs.cast.i
  %cmp = icmp ult i64 %sub.ptr.sub.i, 40
  br i1 %cmp, label %if.then, label %try.cont

if.then:                                          ; preds = %invoke.cont2
  %exception = tail call ptr @__cxa_allocate_exception(i64 16) #16
  invoke void @_ZN19OpenColorIO_v2_4dev9ExceptionC1EPKc(ptr noundef nonnull align 8 dereferenceable(16) %exception, ptr noundef nonnull @.str)
          to label %invoke.cont8 unwind label %lpad7

invoke.cont8:                                     ; preds = %if.then
  invoke void @__cxa_throw(ptr nonnull %exception, ptr nonnull @_ZTIN19OpenColorIO_v2_4dev9ExceptionE, ptr nonnull @_ZN19OpenColorIO_v2_4dev9ExceptionD1Ev) #17
          to label %unreachable unwind label %lpad

lpad:                                             ; preds = %invoke.cont8, %invoke.cont, %entry
  %3 = landingpad { ptr, i32 }
          catch ptr @_ZTIN19OpenColorIO_v2_4dev9ExceptionE
  br label %catch.dispatch

lpad7:                                            ; preds = %if.then
  %4 = landingpad { ptr, i32 }
          cleanup
          catch ptr @_ZTIN19OpenColorIO_v2_4dev9ExceptionE
  tail call void @__cxa_free_exception(ptr %exception) #16
  br label %catch.dispatch

catch.dispatch:                                   ; preds = %lpad7, %lpad
  %.pn = phi { ptr, i32 } [ %3, %lpad ], [ %4, %lpad7 ]
  %ehselector.slot.0 = extractvalue { ptr, i32 } %.pn, 1
  %5 = tail call i32 @llvm.eh.typeid.for(ptr nonnull @_ZTIN19OpenColorIO_v2_4dev9ExceptionE) #16
  %matches = icmp eq i32 %ehselector.slot.0, %5
  br i1 %matches, label %catch, label %eh.resume

catch:                                            ; preds = %catch.dispatch
  %exn.slot.0 = extractvalue { ptr, i32 } %.pn, 0
  %6 = tail call ptr @__cxa_begin_catch(ptr %exn.slot.0) #16
  call void @_ZNSaIcEC1Ev(ptr noundef nonnull align 1 dereferenceable(1) %ref.tmp) #16
  invoke void @_ZNSt7__cxx1112basic_stringIcSt11char_traitsIcESaIcEEC1EPKcRKS3_(ptr noundef nonnull align 8 dereferenceable(32) %errMsg, ptr noundef nonnull @.str.1, ptr noundef nonnull align 1 dereferenceable(1) %ref.tmp)
          to label %invoke.cont10 unwind label %lpad9

invoke.cont10:                                    ; preds = %catch
  call void @_ZNSaIcED1Ev(ptr noundef nonnull align 1 dereferenceable(1) %ref.tmp) #16
  %vtable11 = load ptr, ptr %6, align 8
  %vfn12 = getelementptr inbounds i8, ptr %vtable11, i64 16
  %7 = load ptr, ptr %vfn12, align 8
  %call13 = call noundef ptr %7(ptr noundef nonnull align 8 dereferenceable(16) %6) #16
  %call16 = invoke noundef nonnull align 8 dereferenceable(32) ptr @_ZNSt7__cxx1112basic_stringIcSt11char_traitsIcESaIcEEpLEPKc(ptr noundef nonnull align 8 dereferenceable(32) %errMsg, ptr noundef %call13)
          to label %invoke.cont15 unwind label %lpad14

invoke.cont15:                                    ; preds = %invoke.cont10
  %exception17 = call ptr @__cxa_allocate_exception(i64 16) #16
  %call18 = call noundef ptr @_ZNKSt7__cxx1112basic_stringIcSt11char_traitsIcESaIcEE5c_strEv(ptr noundef nonnull align 8 dereferenceable(32) %errMsg) #16
  invoke void @_ZN19OpenColorIO_v2_4dev9ExceptionC1EPKc(ptr noundef nonnull align 8 dereferenceable(16) %exception17, ptr noundef %call18)
          to label %invoke.cont20 unwind label %lpad19

invoke.cont20:                                    ; preds = %invoke.cont15
  invoke void @__cxa_throw(ptr nonnull %exception17, ptr nonnull @_ZTIN19OpenColorIO_v2_4dev9ExceptionE, ptr nonnull @_ZN19OpenColorIO_v2_4dev9ExceptionD1Ev) #17
          to label %unreachable unwind label %lpad14

lpad9:                                            ; preds = %catch
  %8 = landingpad { ptr, i32 }
          cleanup
  call void @_ZNSaIcED1Ev(ptr noundef nonnull align 1 dereferenceable(1) %ref.tmp) #16
  br label %ehcleanup21

lpad14:                                           ; preds = %invoke.cont20, %invoke.cont10
  %9 = landingpad { ptr, i32 }
          cleanup
  br label %ehcleanup

lpad19:                                           ; preds = %invoke.cont15
  %10 = landingpad { ptr, i32 }
          cleanup
  call void @__cxa_free_exception(ptr %exception17) #16
  br label %ehcleanup

ehcleanup:                                        ; preds = %lpad19, %lpad14
  %.pn3 = phi { ptr, i32 } [ %9, %lpad14 ], [ %10, %lpad19 ]
  call void @_ZNSt7__cxx1112basic_stringIcSt11char_traitsIcESaIcEED1Ev(ptr noundef nonnull align 8 dereferenceable(32) %errMsg) #16
  br label %ehcleanup21

ehcleanup21:                                      ; preds = %ehcleanup, %lpad9
  %.pn3.pn = phi { ptr, i32 } [ %.pn3, %ehcleanup ], [ %8, %lpad9 ]
  invoke void @__cxa_end_catch()
          to label %eh.resume unwind label %terminate.lpad

try.cont:                                         ; preds = %invoke.cont2
  ret void

eh.resume:                                        ; preds = %ehcleanup21, %catch.dispatch
  %lpad.val25.merged = phi { ptr, i32 } [ %.pn3.pn, %ehcleanup21 ], [ %.pn, %catch.dispatch ]
  resume { ptr, i32 } %lpad.val25.merged

terminate.lpad:                                   ; preds = %ehcleanup21
  %11 = landingpad { ptr, i32 }
          catch ptr null
  %12 = extractvalue { ptr, i32 } %11, 0
  call void @__clang_call_terminate(ptr %12) #18
  unreachable

unreachable:                                      ; preds = %invoke.cont20, %invoke.cont8
  unreachable
}